target datalayout = "e-m:e-p270:32:32-p271:32:32-p272:64:64-i64:64-i128:128-f80:128-n8:16:32:64-S128"
target triple = "x86_64-pc-linux-gnu"

%struct.MultirangeType = type { i32, i32, i32 }
%struct.RangeBound = type { i64, i8, i8, i8 }

; Function Attrs: nounwind uwtable
define dso_local zeroext i1 @range_before_multirange_internal(ptr noundef %0, ptr noundef %1, ptr noundef %2) #0 {
  %4 = alloca i1, align 1
  %5 = alloca ptr, align 8
  %6 = alloca ptr, align 8
  %7 = alloca ptr, align 8
  %8 = alloca %struct.RangeBound, align 8
  %9 = alloca %struct.RangeBound, align 8
  %10 = alloca %struct.RangeBound, align 8
  %11 = alloca %struct.RangeBound, align 8
  %12 = alloca i8, align 1
  %13 = alloca i32, align 4
  store ptr %0, ptr %5, align 8
  store ptr %1, ptr %6, align 8
  store ptr %2, ptr %7, align 8
  call void @llvm.lifetime.start.p0(i64 16, ptr %8) #9
  call void @llvm.lifetime.start.p0(i64 16, ptr %9) #9
  call void @llvm.lifetime.start.p0(i64 16, ptr %10) #9
  call void @llvm.lifetime.start.p0(i64 16, ptr %11) #9
  call void @llvm.lifetime.start.p0(i64 1, ptr %12) #9
  %14 = load ptr, ptr %6, align 8
  %15 = call signext i8 @range_get_flags(ptr noundef %14)
  %16 = sext i8 %15 to i32
  %17 = and i32 %16, 1
  %18 = icmp ne i32 %17, 0
  br i1 %18, label %24, label %19

19:                                               ; preds = %3
  %20 = load ptr, ptr %7, align 8
  %21 = getelementptr inbounds nuw %struct.MultirangeType, ptr %20, i32 0, i32 2
  %22 = load i32, ptr %21, align 4
  %23 = icmp eq i32 %22, 0
  br i1 %23, label %24, label %25

24:                                               ; preds = %19, %3
  store i1 false, ptr %4, align 1
  store i32 1, ptr %13, align 4
  br label %33

25:                                               ; preds = %19
  %26 = load ptr, ptr %5, align 8
  %27 = load ptr, ptr %6, align 8
  call void @range_deserialize(ptr noundef %26, ptr noundef %27, ptr noundef %8, ptr noundef %9, ptr noundef %12)
  %28 = load ptr, ptr %5, align 8
  %29 = load ptr, ptr %7, align 8
  call void @multirange_get_bounds(ptr noundef %28, ptr noundef %29, i32 noundef 0, ptr noundef %10, ptr noundef %11)
  %30 = load ptr, ptr %5, align 8
  %31 = call i32 @range_cmp_bounds(ptr noundef %30, ptr noundef %9, ptr noundef %10)
  %32 = icmp slt i32 %31, 0
  store i1 %32, ptr %4, align 1
  store i32 1, ptr %13, align 4
  br label %33

33:                                               ; preds = %25, %24
  call void @llvm.lifetime.end.p0(i64 1, ptr %12) #9
  call void @llvm.lifetime.end.p0(i64 16, ptr %11) #9
  call void @llvm.lifetime.end.p0(i64 16, ptr %10) #9
  call void @llvm.lifetime.end.p0(i64 16, ptr %9) #9
  call void @llvm.lifetime.end.p0(i64 16, ptr %8) #9
  %34 = load i1, ptr %4, align 1
  ret i1 %34
}